target datalayout = "e-m:e-p270:32:32-p271:32:32-p272:64:64-i64:64-i128:128-f80:128-n8:16:32:64-S128"
target triple = "x86_64-pc-linux-gnu"

%struct.GPU_Shaders = type { [3 x ptr], [6 x ptr] }

; Function Attrs: nounwind uwtable
define hidden void @GPU_ReleaseShaders(ptr noundef %0, ptr noundef %1) #0 {
  %3 = alloca ptr, align 8
  %4 = alloca ptr, align 8
  %5 = alloca i32, align 4
  %6 = alloca i32, align 4
  store ptr %0, ptr %3, align 8
  store ptr %1, ptr %4, align 8
  call void @llvm.lifetime.start.p0(i64 4, ptr %5) #4
  store i32 0, ptr %5, align 4
  br label %7

7:                                                ; preds = %25, %2
  %8 = load i32, ptr %5, align 4
  %9 = sext i32 %8 to i64
  %10 = icmp ult i64 %9, 3
  br i1 %10, label %12, label %11

11:                                               ; preds = %7
  call void @llvm.lifetime.end.p0(i64 4, ptr %5) #4
  br label %28

12:                                               ; preds = %7
  %13 = load ptr, ptr %4, align 8
  %14 = load ptr, ptr %3, align 8
  %15 = getelementptr inbounds nuw %struct.GPU_Shaders, ptr %14, i32 0, i32 0
  %16 = load i32, ptr %5, align 4
  %17 = sext i32 %16 to i64
  %18 = getelementptr inbounds [3 x ptr], ptr %15, i64 0, i64 %17
  %19 = load ptr, ptr %18, align 8
  call void @SDL_ReleaseGPUShader_REAL(ptr noundef %13, ptr noundef %19)
  %20 = load ptr, ptr %3, align 8
  %21 = getelementptr inbounds nuw %struct.GPU_Shaders, ptr %20, i32 0, i32 0
  %22 = load i32, ptr %5, align 4
  %23 = sext i32 %22 to i64
  %24 = getelementptr inbounds [3 x ptr], ptr %21, i64 0, i64 %23
  store ptr null, ptr %24, align 8
  br label %25

25:                                               ; preds = %12
  %26 = load i32, ptr %5, align 4
  %27 = add nsw i32 %26, 1
  store i32 %27, ptr %5, align 4
  br label %7, !llvm.loop !6

28:                                               ; preds = %11
  call void @llvm.lifetime.start.p0(i64 4, ptr %6) #4
  store i32 0, ptr %6, align 4
  br label %29

29:                                               ; preds = %51, %28
  %30 = load i32, ptr %6, align 4
  %31 = sext i32 %30 to i64
  %32 = icmp ult i64 %31, 6
  br i1 %32, label %34, label %33

33:                                               ; preds = %29
  call void @llvm.lifetime.end.p0(i64 4, ptr %6) #4
  br label %54

34:                                               ; preds = %29
  %35 = load i32, ptr %6, align 4
  %36 = icmp eq i32 %35, 5
  br i1 %36, label %37, label %38

37:                                               ; preds = %34
  br label %51

38:                                               ; preds = %34
  %39 = load ptr, ptr %4, align 8
  %40 = load ptr, ptr %3, align 8
  %41 = getelementptr inbounds nuw %struct.GPU_Shaders, ptr %40, i32 0, i32 1
  %42 = load i32, ptr %6, align 4
  %43 = sext i32 %42 to i64
  %44 = getelementptr inbounds [6 x ptr], ptr %41, i64 0, i64 %43
  %45 = load ptr, ptr %44, align 8
  call void @SDL_ReleaseGPUShader_REAL(ptr noundef %39, ptr noundef %45)
  %46 = load ptr, ptr %3, align 8
  %47 = getelementptr inbounds nuw %struct.GPU_Shaders, ptr %46, i32 0, i32 1
  %48 = load i32, ptr %6, align 4
  %49 = sext i32 %48 to i64
  %50 = getelementptr inbounds [6 x ptr], ptr %47, i64 0, i64 %49
  store ptr null, ptr %50, align 8
  br label %51

51:                                               ; preds = %38, %37
  %52 = load i32, ptr %6, align 4
  %53 = add nsw i32 %52, 1
  store i32 %53, ptr %6, align 4
  br label %29, !llvm.loop !7

54:                                               ; preds = %33
  ret void
}