; Function Attrs: nounwind uwtable
define hidden void @GPU_ReleaseShaders(ptr noundef captures(none) %0, ptr noundef %1) local_unnamed_addr #0 {
  br label %4

.preheader:                                       ; preds = %4
  %3 = getelementptr inbounds nuw i8, ptr %0, i64 24
  br label %8

4:                                                ; preds = %2, %4
  %indvars.iv = phi i64 [ 0, %2 ], [ %indvars.iv.next, %4 ]
  %5 = getelementptr inbounds nuw [3 x ptr], ptr %0, i64 0, i64 %indvars.iv
  %6 = load ptr, ptr %5, align 8
  tail call void @SDL_ReleaseGPUShader_REAL(ptr noundef %1, ptr noundef %6) #5
  store ptr null, ptr %5, align 8
  %indvars.iv.next = add nuw nsw i64 %indvars.iv, 1
  %exitcond.not = icmp eq i64 %indvars.iv.next, 3
  br i1 %exitcond.not, label %.preheader, label %4, !llvm.loop !5

7:                                                ; preds = %8
  ret void

8:                                                ; preds = %.preheader, %8
  %indvars.iv2026 = phi i64 [ 0, %.preheader ], [ %indvars.iv.next21, %8 ]
  %9 = getelementptr inbounds nuw [6 x ptr], ptr %3, i64 0, i64 %indvars.iv2026
  %10 = load ptr, ptr %9, align 8
  tail call void @SDL_ReleaseGPUShader_REAL(ptr noundef %1, ptr noundef %10) #5
  store ptr null, ptr %9, align 8
  %indvars.iv.next21 = add nuw nsw i64 %indvars.iv2026, 1
  %11 = icmp eq i64 %indvars.iv.next21, 5
  br i1 %11, label %7, label %8
}